target datalayout = "e-m:e-p270:32:32-p271:32:32-p272:64:64-i64:64-i128:128-f80:128-n8:16:32:64-S128"
target triple = "x86_64-pc-linux-gnu"

%struct._libxml_doc_props = type { ptr, i8, i8, i8, i8, i8, i8, i8 }
%struct._php_libxml_ref_obj = type { ptr, ptr, %struct.php_libxml_cache_tag, i32, i8 }
%struct.php_libxml_cache_tag = type { i64 }

@default_doc_props = internal constant %struct._libxml_doc_props { ptr null, i8 0, i8 0, i8 0, i8 1, i8 0, i8 1, i8 0 }, align 8

; Function Attrs: nounwind uwtable
define hidden ptr @dom_get_doc_props_read_only(ptr noundef %0) #0 {
  %2 = alloca ptr, align 8
  %3 = alloca ptr, align 8
  store ptr %0, ptr %3, align 8
  %4 = load ptr, ptr %3, align 8
  %5 = icmp ne ptr %4, null
  br i1 %5, label %6, label %15

6:                                                ; preds = %1
  %7 = load ptr, ptr %3, align 8
  %8 = getelementptr inbounds %struct._php_libxml_ref_obj, ptr %7, i32 0, i32 1
  %9 = load ptr, ptr %8, align 8
  %10 = icmp ne ptr %9, null
  br i1 %10, label %11, label %15

11:                                               ; preds = %6
  %12 = load ptr, ptr %3, align 8
  %13 = getelementptr inbounds %struct._php_libxml_ref_obj, ptr %12, i32 0, i32 1
  %14 = load ptr, ptr %13, align 8
  store ptr %14, ptr %2, align 8
  br label %16

15:                                               ; preds = %6, %1
  store ptr @default_doc_props, ptr %2, align 8
  br label %16

16:                                               ; preds = %15, %11
  %17 = load ptr, ptr %2, align 8
  ret ptr %17
}