; Function Attrs: mustprogress nofree norecurse nosync nounwind willreturn memory(argmem: read) uwtable
define hidden nonnull ptr @dom_get_doc_props_read_only(ptr noundef readonly %0) local_unnamed_addr #0 {
  %.not = icmp eq ptr %0, null
  br i1 %.not, label %5, label %2

2:                                                ; preds = %1
  %3 = getelementptr inbounds i8, ptr %0, i64 8
  %4 = load ptr, ptr %3, align 8
  %.not6 = icmp eq ptr %4, null
  br i1 %.not6, label %5, label %6

5:                                                ; preds = %2, %1
  br label %6

6:                                                ; preds = %2, %5
  %.0 = phi ptr [ @default_doc_props, %5 ], [ %4, %2 ]
  ret ptr %.0
}